; Function Attrs: mustprogress uwtable
define void @_ZNK5Ipopt14DenseGenMatrix19CholeskySolveMatrixERS0_(ptr noundef nonnull readonly align 8 captures(none) dereferenceable(104) %0, ptr noundef nonnull align 8 dereferenceable(104) initializes((88, 89)) %1) local_unnamed_addr #2 align 2 {
  %3 = getelementptr inbounds nuw i8, ptr %0, i64 56
  %4 = load ptr, ptr %3, align 8, !tbaa !6
  %5 = getelementptr inbounds nuw i8, ptr %4, i64 12
  %6 = load i32, ptr %5, align 4, !tbaa !33
  %7 = getelementptr inbounds nuw i8, ptr %1, i64 56
  %8 = load ptr, ptr %7, align 8, !tbaa !6
  %9 = getelementptr inbounds nuw i8, ptr %8, i64 16
  %10 = load i32, ptr %9, align 8, !tbaa !31
  %11 = getelementptr inbounds nuw i8, ptr %0, i64 80
  %12 = load ptr, ptr %11, align 8, !tbaa !34
  %13 = getelementptr inbounds nuw i8, ptr %1, i64 88
  store i8 1, ptr %13, align 8, !tbaa !35
  tail call void @_ZN5Ipopt12TaggedObject13ObjectChangedEv(ptr noundef nonnull align 8 dereferenceable(104) %1)
  %14 = getelementptr inbounds nuw i8, ptr %1, i64 80
  %15 = load ptr, ptr %14, align 8, !tbaa !34
  %16 = load ptr, ptr %7, align 8, !tbaa !6
  %17 = getelementptr inbounds nuw i8, ptr %16, i64 12
  %18 = load i32, ptr %17, align 4, !tbaa !33
  tail call void @_ZN5Ipopt13IpLapackPotrsEiiPKdiPdi(i32 noundef %6, i32 noundef %10, ptr noundef %12, i32 noundef %6, ptr noundef %15, i32 noundef %18)
  ret void
}